; Function Attrs: mustprogress uwtable
define dso_local void @_ZN30cmInstallCxxModuleBmiGeneratorC2ENSt7__cxx1112basic_stringIcSt11char_traitsIcESaIcEEERKS5_S5_RKSt6vectorIS5_SaIS5_EES7_N18cmInstallGenerator12MessageLevelEbb19cmListFileBacktrace(ptr noundef nonnull align 8 dereferenceable(281) %0, ptr noundef %1, ptr noundef nonnull align 8 dereferenceable(32) %2, ptr noundef %3, ptr noundef nonnull align 8 dereferenceable(24) %4, ptr noundef nonnull align 8 dereferenceable(32) %5, i32 noundef %6, i1 noundef zeroext %7, i1 noundef zeroext %8, ptr nocapture noundef %9) unnamed_addr #3 align 2 personality ptr @__gxx_personality_v0 {
  %11 = alloca %"class.std::__cxx11::basic_string", align 8
  %12 = alloca %"class.std::__cxx11::basic_string", align 8
  %13 = alloca %class.cmListFileBacktrace, align 16
  call void @_ZNSt7__cxx1112basic_stringIcSt11char_traitsIcESaIcEEC1ERKS4_(ptr noundef nonnull align 8 dereferenceable(32) %11, ptr noundef nonnull align 8 dereferenceable(32) %2)
  invoke void @_ZNSt7__cxx1112basic_stringIcSt11char_traitsIcESaIcEEC1ERKS4_(ptr noundef nonnull align 8 dereferenceable(32) %12, ptr noundef nonnull align 8 dereferenceable(32) %5)
          to label %14 unwind label %60

14:                                               ; preds = %10
  %15 = getelementptr inbounds i8, ptr %9, i64 8
  %16 = load <2 x ptr>, ptr %9, align 8
  store ptr null, ptr %15, align 8
  store <2 x ptr> %16, ptr %13, align 16
  store ptr null, ptr %9, align 8
  invoke void @_ZN18cmInstallGeneratorC2ENSt7__cxx1112basic_stringIcSt11char_traitsIcESaIcEEERKSt6vectorIS5_SaIS5_EES5_NS_12MessageLevelEbb19cmListFileBacktrace(ptr noundef nonnull align 8 dereferenceable(200) %0, ptr noundef nonnull %11, ptr noundef nonnull align 8 dereferenceable(24) %4, ptr noundef nonnull %12, i32 noundef %6, i1 noundef zeroext %7, i1 noundef zeroext false, ptr noundef nonnull %13)
          to label %17 unwind label %62

17:                                               ; preds = %14
  %18 = getelementptr inbounds i8, ptr %13, i64 8
  %19 = load ptr, ptr %18, align 8
  %.not.i.i.i.i.i = icmp eq ptr %19, null
  br i1 %.not.i.i.i.i.i, label %_ZN19cmListFileBacktraceD2Ev.exit, label %20

20:                                               ; preds = %17
  %21 = getelementptr inbounds i8, ptr %19, i64 8
  %22 = load atomic i64, ptr %21 acquire, align 8
  %23 = icmp eq i64 %22, 4294967297
  %24 = trunc i64 %22 to i32
  br i1 %23, label %25, label %30

25:                                               ; preds = %20
  store i32 0, ptr %21, align 8
  %26 = getelementptr inbounds i8, ptr %19, i64 12
  store i32 0, ptr %26, align 4
  %27 = load ptr, ptr %19, align 8
  %28 = getelementptr inbounds i8, ptr %27, i64 16
  %29 = load ptr, ptr %28, align 8
  call void %29(ptr noundef nonnull align 8 dereferenceable(16) %19) #11
  br label %_ZNSt16_Sp_counted_baseILN9__gnu_cxx12_Lock_policyE2EE24_M_release_last_use_coldEv.exit.sink.split.i.i.i.i.i.i

30:                                               ; preds = %20
  %31 = load i8, ptr @__libc_single_threaded, align 1
  %.not.i.i.i.i.i.i = icmp eq i8 %31, 0
  br i1 %.not.i.i.i.i.i.i, label %34, label %32

32:                                               ; preds = %30
  %33 = add nsw i32 %24, -1
  store i32 %33, ptr %21, align 4
  br label %36

34:                                               ; preds = %30
  %35 = atomicrmw volatile add ptr %21, i32 -1 acq_rel, align 4
  br label %36

36:                                               ; preds = %34, %32
  %.0.i.i.i.i.i.i = phi i32 [ %24, %32 ], [ %35, %34 ]
  %37 = icmp eq i32 %.0.i.i.i.i.i.i, 1
  br i1 %37, label %38, label %_ZN19cmListFileBacktraceD2Ev.exit

38:                                               ; preds = %36
  %39 = load ptr, ptr %19, align 8
  %40 = getelementptr inbounds i8, ptr %39, i64 16
  %41 = load ptr, ptr %40, align 8
  call void %41(ptr noundef nonnull align 8 dereferenceable(16) %19) #11
  %42 = getelementptr inbounds i8, ptr %19, i64 12
  %43 = load i8, ptr @__libc_single_threaded, align 1
  %.not.i.i.i.i.i.i.i.i = icmp eq i8 %43, 0
  br i1 %.not.i.i.i.i.i.i.i.i, label %47, label %44

44:                                               ; preds = %38
  %45 = load i32, ptr %42, align 4
  %46 = add nsw i32 %45, -1
  store i32 %46, ptr %42, align 4
  br label %49

47:                                               ; preds = %38
  %48 = atomicrmw volatile add ptr %42, i32 -1 acq_rel, align 4
  br label %49

49:                                               ; preds = %47, %44
  %.0.i.i.i.i.i.i.i.i = phi i32 [ %45, %44 ], [ %48, %47 ]
  %50 = icmp eq i32 %.0.i.i.i.i.i.i.i.i, 1
  br i1 %50, label %_ZNSt16_Sp_counted_baseILN9__gnu_cxx12_Lock_policyE2EE24_M_release_last_use_coldEv.exit.sink.split.i.i.i.i.i.i, label %_ZN19cmListFileBacktraceD2Ev.exit

_ZNSt16_Sp_counted_baseILN9__gnu_cxx12_Lock_policyE2EE24_M_release_last_use_coldEv.exit.sink.split.i.i.i.i.i.i: ; preds = %49, %25
  %51 = load ptr, ptr %19, align 8
  %52 = getelementptr inbounds i8, ptr %51, i64 24
  %53 = load ptr, ptr %52, align 8
  call void %53(ptr noundef nonnull align 8 dereferenceable(16) %19) #11
  br label %_ZN19cmListFileBacktraceD2Ev.exit

_ZN19cmListFileBacktraceD2Ev.exit:                ; preds = %17, %36, %49, %_ZNSt16_Sp_counted_baseILN9__gnu_cxx12_Lock_policyE2EE24_M_release_last_use_coldEv.exit.sink.split.i.i.i.i.i.i
  %54 = zext i1 %8 to i8
  call void @_ZNSt7__cxx1112basic_stringIcSt11char_traitsIcESaIcEED1Ev(ptr noundef nonnull align 8 dereferenceable(32) %12) #11
  call void @_ZNSt7__cxx1112basic_stringIcSt11char_traitsIcESaIcEED1Ev(ptr noundef nonnull align 8 dereferenceable(32) %11) #11
  store ptr getelementptr inbounds ({ [13 x ptr] }, ptr @_ZTV30cmInstallCxxModuleBmiGenerator, i64 0, i32 0, i64 2), ptr %0, align 8
  %55 = getelementptr inbounds i8, ptr %0, i64 200
  call void @_ZNSt7__cxx1112basic_stringIcSt11char_traitsIcESaIcEEC1EOS4_(ptr noundef nonnull align 8 dereferenceable(32) %55, ptr noundef nonnull align 8 dereferenceable(32) %1) #11
  %56 = getelementptr inbounds i8, ptr %0, i64 232
  %57 = getelementptr inbounds i8, ptr %0, i64 248
  call void @llvm.memset.p0.i64(ptr noundef nonnull align 8 dereferenceable(16) %56, i8 0, i64 16, i1 false)
  call void @_ZNSt7__cxx1112basic_stringIcSt11char_traitsIcESaIcEEC1EOS4_(ptr noundef nonnull align 8 dereferenceable(32) %57, ptr noundef nonnull align 8 dereferenceable(32) %3) #11
  %58 = getelementptr inbounds i8, ptr %0, i64 280
  store i8 %54, ptr %58, align 8
  %59 = getelementptr inbounds i8, ptr %0, i64 104
  store i8 1, ptr %59, align 8
  ret void

60:                                               ; preds = %10
  %61 = landingpad { ptr, i32 }
          cleanup
  br label %64

62:                                               ; preds = %14
  %63 = landingpad { ptr, i32 }
          cleanup
  call void @_ZN19cmListFileBacktraceD2Ev(ptr noundef nonnull align 8 dereferenceable(16) %13) #11
  call void @_ZNSt7__cxx1112basic_stringIcSt11char_traitsIcESaIcEED1Ev(ptr noundef nonnull align 8 dereferenceable(32) %12) #11
  br label %64

64:                                               ; preds = %62, %60
  %.pn = phi { ptr, i32 } [ %63, %62 ], [ %61, %60 ]
  call void @_ZNSt7__cxx1112basic_stringIcSt11char_traitsIcESaIcEED1Ev(ptr noundef nonnull align 8 dereferenceable(32) %11) #11
  resume { ptr, i32 } %.pn
}